; Function Attrs: mustprogress uwtable
define noundef ptr @_ZNK7Imf_3_419DeepTiledOutputFile8fileNameEv(ptr noundef nonnull readonly align 8 captures(none) dereferenceable(16) %0) local_unnamed_addr #5 align 2 {
  %2 = getelementptr inbounds nuw i8, ptr %0, i64 8
  %3 = load ptr, ptr %2, align 8, !tbaa !126
  %4 = getelementptr inbounds nuw i8, ptr %3, i64 448
  %5 = load ptr, ptr %4, align 8, !tbaa !72
  %6 = getelementptr inbounds nuw i8, ptr %5, i64 40
  %7 = load ptr, ptr %6, align 8, !tbaa !130
  %8 = tail call noundef ptr @_ZNK7Imf_3_47OStream8fileNameEv(ptr noundef nonnull align 8 dereferenceable(40) %7)
  ret ptr %8
}